ccollections
defaultdict
p1
(c__builtin__
int
p2
tRp3
S' '
I0
sS"'"
I1
sS'-'
I2
sS','
I3
sS'.'
I4
sS'a'
I5
sS'c'
I6
sS'b'
I7
sS'e'
I8
sS'd'
I9
sS'g'
I10
sS'f'
I11
sS'i'
I12
sS'h'
I13
sS'm'
I14
sS'l'
I15
sS'o'
I16
sS'n'
I17
sS'p'
I18
sS's'
I19
sS'r'
I20
sS'u'
I21
sS't'
I22
sS'w'
I23
sS'v'
I24
sS'y'
I25
s.